	.file	"ld-temp.o"
	.file	1 "/home/kuitang/CYG2/apps/matrix/matrix.c"
	.text
.Ltext_begin:
	.data
	.text
	.align	16, 0x90
	.type	worker,@function
worker:                                 # @worker
.Ltmp3:
	.cfi_startproc
.Lfunc_begin0:
	.loc	1 38 0                  # matrix.c:38:0
# BB#0:                                 # %entry
	.loc	1 40 3 prologue_end     # matrix.c:40:3
	pushq	%rbp
.Ltmp4:
	.cfi_def_cfa_offset 16
	pushq	%rbx
.Ltmp5:
	.cfi_def_cfa_offset 24
.Ltmp6:
	.cfi_offset %rbx, -24
.Ltmp7:
	.cfi_offset %rbp, -16
	#DEBUG_VALUE: worker:arg <- RDI+0
	movl	(%rdi), %ecx
	movl	8(%rdi), %eax
	cmpl	%eax, %ecx
	jge	.LBB0_9
# BB#1:                                 # %for.cond.preheader.lr.ph.i
	#DEBUG_VALUE: worker:arg <- RDI+0
	movslq	4(%rdi), %r8
	.loc	1 28 10                 # matrix.c:28:10
.Ltmp8:
	testl	%eax, %eax
	jle	.LBB0_8
.Ltmp9:
# BB#2:                                 # %for.body4.lr.ph.us.i.preheader.us.preheader
	#DEBUG_VALUE: worker:arg <- RDI+0
	.loc	1 40 3                  # matrix.c:40:3
	movq	32(%rdi), %r10
	movq	24(%rdi), %r11
	movq	16(%rdi), %rdx
	.loc	1 30 12                 # matrix.c:30:12
.Ltmp10:
	movslq	%ecx, %rdi
.Ltmp11:
	imulq	$8000, %rdi, %rsi       # imm = 0x1F40
	addq	%rdx, %rsi
	imulq	$8000, %r8, %r9         # imm = 0x1F40
	.align	16, 0x90
.LBB0_3:                                # %for.body4.lr.ph.us.i.preheader.us
                                        # =>This Loop Header: Depth=1
                                        #     Child Loop BB0_4 Depth 2
                                        #       Child Loop BB0_5 Depth 3
	xorl	%edx, %edx
	.align	16, 0x90
.LBB0_4:                                # %for.body4.lr.ph.us.i.us
                                        #   Parent Loop BB0_3 Depth=1
                                        # =>  This Loop Header: Depth=2
                                        #       Child Loop BB0_5 Depth 3
	pxor	%xmm0, %xmm0
	.loc	1 27 3                  # matrix.c:27:3
	movq	%rsi, %rcx
	.loc	1 30 12                 # matrix.c:30:12
	movq	%r11, %rbx
	movl	%eax, %ebp
	.align	16, 0x90
.LBB0_5:                                # %for.body4.us.i.us
                                        #   Parent Loop BB0_3 Depth=1
                                        #     Parent Loop BB0_4 Depth=2
                                        # =>    This Inner Loop Header: Depth=3
	.loc	1 31 2                  # matrix.c:31:2
	movsd	(%rcx), %xmm1
	mulsd	(%rbx,%rdx,8), %xmm1
	addsd	%xmm1, %xmm0
	.loc	1 30 12                 # matrix.c:30:12
	addq	$8, %rcx
	addq	$8000, %rbx             # imm = 0x1F40
	decl	%ebp
	jne	.LBB0_5
# BB#6:                                 # %for.end.us.i.us
                                        #   in Loop: Header=BB0_4 Depth=2
	.loc	1 32 7                  # matrix.c:32:7
	imulq	$8000, %rdi, %rcx       # imm = 0x1F40
	addq	%r10, %rcx
	movsd	%xmm0, (%rcx,%rdx,8)
	.loc	1 28 10                 # matrix.c:28:10
	incq	%rdx
	cmpl	%eax, %edx
	jne	.LBB0_4
# BB#7:                                 # %for.end17.i.us
                                        #   in Loop: Header=BB0_3 Depth=1
	.loc	1 27 3                  # matrix.c:27:3
	addq	%r9, %rsi
	addq	%r8, %rdi
	cmpl	%eax, %edi
	jl	.LBB0_3
	jmp	.LBB0_9
	.align	16, 0x90
.LBB0_8:                                # %for.end17.i
                                        # =>This Inner Loop Header: Depth=1
	addl	%r8d, %ecx
	cmpl	%eax, %ecx
	jl	.LBB0_8
.Ltmp12:
.LBB0_9:                                # %mm.exit
	xorl	%eax, %eax
	.loc	1 41 3                  # matrix.c:41:3
	popq	%rbx
	popq	%rbp
	ret
.Ltmp13:
.Ltmp14:
	.size	worker, .Ltmp14-worker
.Lfunc_end0:
.Ltmp15:
	.cfi_endproc
.Leh_func_end0:

	.globl	main
	.align	16, 0x90
	.type	main,@function
main:                                   # @main
.Ltmp23:
	.cfi_startproc
.Lfunc_begin1:
	.loc	1 45 0                  # matrix.c:45:0
# BB#0:                                 # %entry
	pushq	%rbp
.Ltmp24:
	.cfi_def_cfa_offset 16
	pushq	%r15
.Ltmp25:
	.cfi_def_cfa_offset 24
	pushq	%r14
.Ltmp26:
	.cfi_def_cfa_offset 32
	pushq	%r13
.Ltmp27:
	.cfi_def_cfa_offset 40
	pushq	%r12
.Ltmp28:
	.cfi_def_cfa_offset 48
	pushq	%rbx
.Ltmp29:
	.cfi_def_cfa_offset 56
	subq	$72, %rsp
.Ltmp30:
	.cfi_def_cfa_offset 128
.Ltmp31:
	.cfi_offset %rbx, -56
.Ltmp32:
	.cfi_offset %r12, -48
.Ltmp33:
	.cfi_offset %r13, -40
.Ltmp34:
	.cfi_offset %r14, -32
.Ltmp35:
	.cfi_offset %r15, -24
.Ltmp36:
	.cfi_offset %rbp, -16
	#DEBUG_VALUE: main:argc <- EDI+0
	#DEBUG_VALUE: main:argv <- RSI+0
	xorl	%r8d, %r8d
	xorl	%r9d, %r9d
.Ltmp37:
	#DEBUG_VALUE: i <- 0+0
	xorl	%edx, %edx
	.align	16, 0x90
.LBB1_1:                                # %for.cond1.preheader
                                        # =>This Loop Header: Depth=1
                                        #     Child Loop BB1_2 Depth 2
	#DEBUG_VALUE: main:argc <- EDI+0
	#DEBUG_VALUE: main:argv <- RSI+0
	#DEBUG_VALUE: i <- 0+0
	movl	$1000, %ebp             # imm = 0x3E8
	.loc	1 52 8 prologue_end     # matrix.c:52:8
.Ltmp38:
	movl	%r9d, %ecx
	movq	%r8, %rax
	.align	16, 0x90
.LBB1_2:                                # %for.body3
                                        #   Parent Loop BB1_1 Depth=1
                                        # =>  This Inner Loop Header: Depth=2
	#DEBUG_VALUE: main:argc <- EDI+0
	#DEBUG_VALUE: main:argv <- RSI+0
	#DEBUG_VALUE: i <- 0+0
	.loc	1 54 2                  # matrix.c:54:2
.Ltmp39:
	cvtsi2sd	%ecx, %xmm0
	movsd	%xmm0, a(%rax)
	.loc	1 55 2                  # matrix.c:55:2
	movsd	%xmm0, b(%rax)
.Ltmp40:
	.loc	1 53 10                 # matrix.c:53:10
	incl	%ecx
	addq	$8, %rax
	decl	%ebp
	jne	.LBB1_2
.Ltmp41:
# BB#3:                                 # %for.inc12
                                        #   in Loop: Header=BB1_1 Depth=1
	#DEBUG_VALUE: main:argc <- EDI+0
	#DEBUG_VALUE: main:argv <- RSI+0
	#DEBUG_VALUE: i <- 0+0
	.loc	1 52 8                  # matrix.c:52:8
	incl	%r9d
	addq	$8000, %r8              # imm = 0x1F40
	incq	%rdx
	cmpl	$1000, %edx             # imm = 0x3E8
	jne	.LBB1_1
.Ltmp42:
# BB#4:                                 # %for.end14
	#DEBUG_VALUE: main:argc <- EDI+0
	#DEBUG_VALUE: main:argv <- RSI+0
	.loc	1 58 3                  # matrix.c:58:3
	cmpl	$2, %edi
	jne	.LBB1_11
.Ltmp43:
# BB#5:                                 # %if.end
	#DEBUG_VALUE: main:argv <- RSI+0
	.loc	1 62 7                  # matrix.c:62:7
	movq	8(%rsi), %rdi
	xorb	%al, %al
	callq	atoi
.Ltmp44:
	movl	%eax, %ebx
	.loc	1 71 27                 # matrix.c:71:27
	movslq	%ebx, %r15
	leaq	(,%r15,8), %rbp
	movq	%rbp, %rdi
	callq	malloc
	movq	%rax, %r14
	leaq	16(%rsp), %rdi
	.loc	1 72 3                  # matrix.c:72:3
	callq	pthread_attr_init
	.loc	1 73 15                 # matrix.c:73:15
	leaq	(%rbp,%rbp,4), %rdi
	callq	malloc
	movq	%rax, %rbp
.Ltmp45:
	#DEBUG_VALUE: i <- 0+0
	.loc	1 62 7                  # matrix.c:62:7
	testl	%r15d, %r15d
	jle	.LBB1_10
# BB#6:
	xorl	%r15d, %r15d
	leaq	16(%rsp), %r12
	.loc	1 75 8                  # matrix.c:75:8
.Ltmp46:
	movq	%rbp, 8(%rsp)           # 8-byte Spill
	movq	%rbp, %r13
	movq	%r14, %rbp
	.align	16, 0x90
.LBB1_7:                                # %for.body29
                                        # =>This Inner Loop Header: Depth=1
	.loc	1 76 5                  # matrix.c:76:5
.Ltmp47:
	movl	%r15d, (%r13)
	.loc	1 77 5                  # matrix.c:77:5
	movl	%ebx, 4(%r13)
	.loc	1 78 5                  # matrix.c:78:5
	movl	$1000, 8(%r13)          # imm = 0x3E8
	.loc	1 79 5                  # matrix.c:79:5
	movq	$a, 16(%r13)
	.loc	1 80 5                  # matrix.c:80:5
	movq	$b, 24(%r13)
	.loc	1 81 5                  # matrix.c:81:5
	movq	$c, 32(%r13)
	.loc	1 82 5                  # matrix.c:82:5
	movq	%rbp, %rdi
	movq	%r12, %rsi
	movl	$worker, %edx
	movq	%r13, %rcx
	callq	pthread_create
.Ltmp48:
	.loc	1 75 8                  # matrix.c:75:8
	addq	$8, %rbp
	addq	$40, %r13
	incl	%r15d
	.loc	1 77 5                  # matrix.c:77:5
.Ltmp49:
	cmpl	%r15d, %ebx
	jne	.LBB1_7
.Ltmp50:
# BB#8:
	movq	8(%rsp), %rbp           # 8-byte Reload
	.align	16, 0x90
.LBB1_9:                                # %for.body52
                                        # =>This Inner Loop Header: Depth=1
	.loc	1 86 5                  # matrix.c:86:5
.Ltmp51:
	movq	(%r14), %rdi
	xorl	%esi, %esi
	callq	pthread_join
	.loc	1 85 8                  # matrix.c:85:8
	addq	$8, %r14
	decl	%ebx
	jne	.LBB1_9
.Ltmp52:
.LBB1_10:                               # %for.end58
	.loc	1 90 3                  # matrix.c:90:3
	movq	%rbp, %rdi
	xorb	%al, %al
	callq	free
	xorl	%eax, %eax
	.loc	1 91 3                  # matrix.c:91:3
	addq	$72, %rsp
	popq	%rbx
	popq	%r12
	popq	%r13
	popq	%r14
	popq	%r15
	popq	%rbp
	ret
.LBB1_11:                               # %if.then
.Ltmp53:
	#DEBUG_VALUE: main:argv <- RSI+0
	.loc	1 59 5                  # matrix.c:59:5
	movq	(%rsi), %rsi
.Ltmp54:
	movl	$.L.str, %edi
	xorb	%al, %al
	callq	printf
	movl	$1, %edi
	.loc	1 60 5                  # matrix.c:60:5
	callq	exit
.Ltmp55:
.Ltmp56:
	.size	main, .Ltmp56-main
.Lfunc_end1:
	.file	2 "/usr/include/x86_64-linux-gnu/bits/pthreadtypes.h"
.Ltmp57:
	.cfi_endproc
.Leh_func_end1:

	.type	a,@object               # @a
	.local	a
	.comm	a,8000000,16
	.type	b,@object               # @b
	.local	b
	.comm	b,8000000,16
	.type	.L.str,@object          # @.str
	.section	.rodata.str1.1,"aMS",@progbits,1
.L.str:
	.asciz	 "Usage: %s n\n  where n is no. of thread\n"
	.size	.L.str, 40

	.type	c,@object               # @c
	.local	c
	.comm	c,8000000,16
	.text
.Ltext_end:
	.data
.Ldata_end:
	.text
.Lsection_end1:
	.section	".note.GNU-stack","",@progbits
